target datalayout = "e-m:e-p270:32:32-p271:32:32-p272:64:64-i64:64-i128:128-f80:128-n8:16:32:64-S128"
target triple = "x86_64-pc-linux-gnu"

%struct.XXH64_state_s = type { i64, [4 x i64], [4 x i64], i32, i32, i64 }

; Function Attrs: mustprogress nounwind uwtable
define internal noundef i32 @_ZL10XXH_read32PKv(ptr noundef %0) #4 {
  %2 = alloca ptr, align 8
  store ptr %0, ptr %2, align 8, !tbaa !4
  %3 = load ptr, ptr %2, align 8, !tbaa !4
  %4 = load i32, ptr %3, align 1, !tbaa !10
  ret i32 %4
}

; Function Attrs: mustprogress nounwind uwtable
define internal noundef i64 @_ZL10XXH_read64PKv(ptr noundef %0) #4 {
  %2 = alloca ptr, align 8
  store ptr %0, ptr %2, align 8, !tbaa !4
  %3 = load ptr, ptr %2, align 8, !tbaa !4
  %4 = load i64, ptr %3, align 1, !tbaa !8
  ret i64 %4
}

; Function Attrs: alwaysinline mustprogress uwtable
define internal noundef i32 @_ZL12XXH_readLE32PKv(ptr noundef %0) #7 {
  %2 = alloca ptr, align 8
  store ptr %0, ptr %2, align 8, !tbaa !4
  %3 = load ptr, ptr %2, align 8, !tbaa !4
  %4 = call noundef i32 @_ZL10XXH_read32PKv(ptr noundef %3)
  ret i32 %4
}

; Function Attrs: alwaysinline mustprogress uwtable
define internal noundef i64 @_ZL12XXH_readLE64PKv(ptr noundef %0) #7 {
  %2 = alloca ptr, align 8
  store ptr %0, ptr %2, align 8, !tbaa !4
  %3 = load ptr, ptr %2, align 8, !tbaa !4
  %4 = call noundef i64 @_ZL10XXH_read64PKv(ptr noundef %3)
  ret i64 %4
}

; Function Attrs: mustprogress nounwind uwtable
define internal noundef i64 @_ZL15XXH64_avalanchem(i64 noundef %0) #4 {
  %2 = alloca i64, align 8
  store i64 %0, ptr %2, align 8, !tbaa !8
  %3 = load i64, ptr %2, align 8, !tbaa !8
  %4 = lshr i64 %3, 33
  %5 = load i64, ptr %2, align 8, !tbaa !8
  %6 = xor i64 %5, %4
  store i64 %6, ptr %2, align 8, !tbaa !8
  %7 = load i64, ptr %2, align 8, !tbaa !8
  %8 = mul i64 %7, -4417276706812531889
  store i64 %8, ptr %2, align 8, !tbaa !8
  %9 = load i64, ptr %2, align 8, !tbaa !8
  %10 = lshr i64 %9, 29
  %11 = load i64, ptr %2, align 8, !tbaa !8
  %12 = xor i64 %11, %10
  store i64 %12, ptr %2, align 8, !tbaa !8
  %13 = load i64, ptr %2, align 8, !tbaa !8
  %14 = mul i64 %13, 1609587929392839161
  store i64 %14, ptr %2, align 8, !tbaa !8
  %15 = load i64, ptr %2, align 8, !tbaa !8
  %16 = lshr i64 %15, 32
  %17 = load i64, ptr %2, align 8, !tbaa !8
  %18 = xor i64 %17, %16
  store i64 %18, ptr %2, align 8, !tbaa !8
  %19 = load i64, ptr %2, align 8, !tbaa !8
  ret i64 %19
}

; Function Attrs: alwaysinline mustprogress uwtable
define internal noundef i32 @_ZL18XXH_readLE32_alignPKv13XXH_alignment(ptr noundef %0, i32 noundef %1) #7 {
  %3 = alloca i32, align 4
  %4 = alloca ptr, align 8
  %5 = alloca i32, align 4
  store ptr %0, ptr %4, align 8, !tbaa !4
  store i32 %1, ptr %5, align 4, !tbaa !14
  %6 = load i32, ptr %5, align 4, !tbaa !14
  %7 = icmp eq i32 %6, 1
  br i1 %7, label %8, label %11

8:                                                ; preds = %2
  %9 = load ptr, ptr %4, align 8, !tbaa !4
  %10 = call noundef i32 @_ZL12XXH_readLE32PKv(ptr noundef %9)
  store i32 %10, ptr %3, align 4
  br label %14

11:                                               ; preds = %2
  %12 = load ptr, ptr %4, align 8, !tbaa !4
  %13 = load i32, ptr %12, align 4, !tbaa !10
  store i32 %13, ptr %3, align 4
  br label %14

14:                                               ; preds = %11, %8
  %15 = load i32, ptr %3, align 4
  ret i32 %15
}

; Function Attrs: alwaysinline mustprogress uwtable
define internal noundef i64 @_ZL18XXH_readLE64_alignPKv13XXH_alignment(ptr noundef %0, i32 noundef %1) #7 {
  %3 = alloca i64, align 8
  %4 = alloca ptr, align 8
  %5 = alloca i32, align 4
  store ptr %0, ptr %4, align 8, !tbaa !4
  store i32 %1, ptr %5, align 4, !tbaa !14
  %6 = load i32, ptr %5, align 4, !tbaa !14
  %7 = icmp eq i32 %6, 1
  br i1 %7, label %8, label %11

8:                                                ; preds = %2
  %9 = load ptr, ptr %4, align 8, !tbaa !4
  %10 = call noundef i64 @_ZL12XXH_readLE64PKv(ptr noundef %9)
  store i64 %10, ptr %3, align 8
  br label %14

11:                                               ; preds = %2
  %12 = load ptr, ptr %4, align 8, !tbaa !4
  %13 = load i64, ptr %12, align 8, !tbaa !8
  store i64 %13, ptr %3, align 8
  br label %14

14:                                               ; preds = %11, %8
  %15 = load i64, ptr %3, align 8
  ret i64 %15
}

; Function Attrs: mustprogress nounwind uwtable
define internal noundef i64 @_ZL11XXH64_roundmm(i64 noundef %0, i64 noundef %1) #4 {
  %3 = alloca i64, align 8
  %4 = alloca i64, align 8
  store i64 %0, ptr %3, align 8, !tbaa !8
  store i64 %1, ptr %4, align 8, !tbaa !8
  %5 = load i64, ptr %4, align 8, !tbaa !8
  %6 = mul i64 %5, -4417276706812531889
  %7 = load i64, ptr %3, align 8, !tbaa !8
  %8 = add i64 %7, %6
  store i64 %8, ptr %3, align 8, !tbaa !8
  %9 = load i64, ptr %3, align 8, !tbaa !8
  %10 = call i64 @llvm.fshl.i64(i64 %9, i64 %9, i64 31)
  store i64 %10, ptr %3, align 8, !tbaa !8
  %11 = load i64, ptr %3, align 8, !tbaa !8
  %12 = mul i64 %11, -7046029288634856825
  store i64 %12, ptr %3, align 8, !tbaa !8
  %13 = load i64, ptr %3, align 8, !tbaa !8
  ret i64 %13
}

; Function Attrs: mustprogress nounwind willreturn memory(read) uwtable
define internal noundef i64 @_ZL14XXH64_finalizemPKhm13XXH_alignment(i64 noundef %0, ptr noundef %1, i64 noundef %2, i32 noundef %3) #1 {
  %5 = alloca i64, align 8
  %6 = alloca ptr, align 8
  %7 = alloca i64, align 8
  %8 = alloca i32, align 4
  %9 = alloca i64, align 8
  store i64 %0, ptr %5, align 8, !tbaa !8
  store ptr %1, ptr %6, align 8, !tbaa !12
  store i64 %2, ptr %7, align 8, !tbaa !8
  store i32 %3, ptr %8, align 4, !tbaa !14
  %10 = load ptr, ptr %6, align 8, !tbaa !12
  %11 = icmp eq ptr %10, null
  br i1 %11, label %12, label %17

12:                                               ; preds = %4
  %13 = load i64, ptr %7, align 8, !tbaa !8
  %14 = icmp eq i64 %13, 0
  br i1 %14, label %16, label %15

15:                                               ; preds = %12
  unreachable

16:                                               ; preds = %12
  br label %17

17:                                               ; preds = %16, %4
  %18 = load i64, ptr %7, align 8, !tbaa !8
  %19 = and i64 %18, 31
  store i64 %19, ptr %7, align 8, !tbaa !8
  br label %20

20:                                               ; preds = %23, %17
  %21 = load i64, ptr %7, align 8, !tbaa !8
  %22 = icmp uge i64 %21, 8
  br i1 %22, label %23, label %39

23:                                               ; preds = %20
  call void @llvm.lifetime.start.p0(i64 8, ptr %9) #22
  %24 = load ptr, ptr %6, align 8, !tbaa !12
  %25 = load i32, ptr %8, align 4, !tbaa !14
  %26 = call noundef i64 @_ZL18XXH_readLE64_alignPKv13XXH_alignment(ptr noundef %24, i32 noundef %25)
  %27 = call noundef i64 @_ZL11XXH64_roundmm(i64 noundef 0, i64 noundef %26)
  store i64 %27, ptr %9, align 8, !tbaa !8
  %28 = load ptr, ptr %6, align 8, !tbaa !12
  %29 = getelementptr inbounds i8, ptr %28, i64 8
  store ptr %29, ptr %6, align 8, !tbaa !12
  %30 = load i64, ptr %9, align 8, !tbaa !8
  %31 = load i64, ptr %5, align 8, !tbaa !8
  %32 = xor i64 %31, %30
  store i64 %32, ptr %5, align 8, !tbaa !8
  %33 = load i64, ptr %5, align 8, !tbaa !8
  %34 = call i64 @llvm.fshl.i64(i64 %33, i64 %33, i64 27)
  %35 = mul i64 %34, -7046029288634856825
  %36 = add i64 %35, -8796714831421723037
  store i64 %36, ptr %5, align 8, !tbaa !8
  %37 = load i64, ptr %7, align 8, !tbaa !8
  %38 = sub i64 %37, 8
  store i64 %38, ptr %7, align 8, !tbaa !8
  call void @llvm.lifetime.end.p0(i64 8, ptr %9) #22
  br label %20, !llvm.loop !38

39:                                               ; preds = %20
  %40 = load i64, ptr %7, align 8, !tbaa !8
  %41 = icmp uge i64 %40, 4
  br i1 %41, label %42, label %58

42:                                               ; preds = %39
  %43 = load ptr, ptr %6, align 8, !tbaa !12
  %44 = load i32, ptr %8, align 4, !tbaa !14
  %45 = call noundef i32 @_ZL18XXH_readLE32_alignPKv13XXH_alignment(ptr noundef %43, i32 noundef %44)
  %46 = zext i32 %45 to i64
  %47 = mul i64 %46, -7046029288634856825
  %48 = load i64, ptr %5, align 8, !tbaa !8
  %49 = xor i64 %48, %47
  store i64 %49, ptr %5, align 8, !tbaa !8
  %50 = load ptr, ptr %6, align 8, !tbaa !12
  %51 = getelementptr inbounds i8, ptr %50, i64 4
  store ptr %51, ptr %6, align 8, !tbaa !12
  %52 = load i64, ptr %5, align 8, !tbaa !8
  %53 = call i64 @llvm.fshl.i64(i64 %52, i64 %52, i64 23)
  %54 = mul i64 %53, -4417276706812531889
  %55 = add i64 %54, 1609587929392839161
  store i64 %55, ptr %5, align 8, !tbaa !8
  %56 = load i64, ptr %7, align 8, !tbaa !8
  %57 = sub i64 %56, 4
  store i64 %57, ptr %7, align 8, !tbaa !8
  br label %58

58:                                               ; preds = %42, %39
  br label %59

59:                                               ; preds = %62, %58
  %60 = load i64, ptr %7, align 8, !tbaa !8
  %61 = icmp ugt i64 %60, 0
  br i1 %61, label %62, label %75

62:                                               ; preds = %59
  %63 = load ptr, ptr %6, align 8, !tbaa !12
  %64 = getelementptr inbounds nuw i8, ptr %63, i32 1
  store ptr %64, ptr %6, align 8, !tbaa !12
  %65 = load i8, ptr %63, align 1, !tbaa !29
  %66 = zext i8 %65 to i64
  %67 = mul i64 %66, 2870177450012600261
  %68 = load i64, ptr %5, align 8, !tbaa !8
  %69 = xor i64 %68, %67
  store i64 %69, ptr %5, align 8, !tbaa !8
  %70 = load i64, ptr %5, align 8, !tbaa !8
  %71 = call i64 @llvm.fshl.i64(i64 %70, i64 %70, i64 11)
  %72 = mul i64 %71, -7046029288634856825
  store i64 %72, ptr %5, align 8, !tbaa !8
  %73 = load i64, ptr %7, align 8, !tbaa !8
  %74 = add i64 %73, -1
  store i64 %74, ptr %7, align 8, !tbaa !8
  br label %59, !llvm.loop !39

75:                                               ; preds = %59
  %76 = load i64, ptr %5, align 8, !tbaa !8
  %77 = call noundef i64 @_ZL15XXH64_avalanchem(i64 noundef %76)
  ret i64 %77
}

; Function Attrs: mustprogress nounwind uwtable
define internal noundef i64 @_ZL16XXH64_mergeRoundmm(i64 noundef %0, i64 noundef %1) #4 {
  %3 = alloca i64, align 8
  %4 = alloca i64, align 8
  store i64 %0, ptr %3, align 8, !tbaa !8
  store i64 %1, ptr %4, align 8, !tbaa !8
  %5 = load i64, ptr %4, align 8, !tbaa !8
  %6 = call noundef i64 @_ZL11XXH64_roundmm(i64 noundef 0, i64 noundef %5)
  store i64 %6, ptr %4, align 8, !tbaa !8
  %7 = load i64, ptr %4, align 8, !tbaa !8
  %8 = load i64, ptr %3, align 8, !tbaa !8
  %9 = xor i64 %8, %7
  store i64 %9, ptr %3, align 8, !tbaa !8
  %10 = load i64, ptr %3, align 8, !tbaa !8
  %11 = mul i64 %10, -7046029288634856825
  %12 = add i64 %11, -8796714831421723037
  store i64 %12, ptr %3, align 8, !tbaa !8
  %13 = load i64, ptr %3, align 8, !tbaa !8
  ret i64 %13
}

; Function Attrs: mustprogress nounwind willreturn memory(read) uwtable
define i64 @ROCKSDB_XXH64_digest(ptr noundef captures(none) %0) #1 {
  %2 = alloca ptr, align 8
  %3 = alloca i64, align 8
  store ptr %0, ptr %2, align 8, !tbaa !32
  call void @llvm.lifetime.start.p0(i64 8, ptr %3) #22
  %4 = load ptr, ptr %2, align 8, !tbaa !32
  %5 = getelementptr inbounds nuw %struct.XXH64_state_s, ptr %4, i32 0, i32 0
  %6 = load i64, ptr %5, align 8, !tbaa !34
  %7 = icmp uge i64 %6, 32
  br i1 %7, label %8, label %56

8:                                                ; preds = %1
  %9 = load ptr, ptr %2, align 8, !tbaa !32
  %10 = getelementptr inbounds nuw %struct.XXH64_state_s, ptr %9, i32 0, i32 1
  %11 = getelementptr inbounds [4 x i64], ptr %10, i64 0, i64 0
  %12 = load i64, ptr %11, align 8, !tbaa !8
  %13 = call i64 @llvm.fshl.i64(i64 %12, i64 %12, i64 1)
  %14 = load ptr, ptr %2, align 8, !tbaa !32
  %15 = getelementptr inbounds nuw %struct.XXH64_state_s, ptr %14, i32 0, i32 1
  %16 = getelementptr inbounds [4 x i64], ptr %15, i64 0, i64 1
  %17 = load i64, ptr %16, align 8, !tbaa !8
  %18 = call i64 @llvm.fshl.i64(i64 %17, i64 %17, i64 7)
  %19 = add i64 %13, %18
  %20 = load ptr, ptr %2, align 8, !tbaa !32
  %21 = getelementptr inbounds nuw %struct.XXH64_state_s, ptr %20, i32 0, i32 1
  %22 = getelementptr inbounds [4 x i64], ptr %21, i64 0, i64 2
  %23 = load i64, ptr %22, align 8, !tbaa !8
  %24 = call i64 @llvm.fshl.i64(i64 %23, i64 %23, i64 12)
  %25 = add i64 %19, %24
  %26 = load ptr, ptr %2, align 8, !tbaa !32
  %27 = getelementptr inbounds nuw %struct.XXH64_state_s, ptr %26, i32 0, i32 1
  %28 = getelementptr inbounds [4 x i64], ptr %27, i64 0, i64 3
  %29 = load i64, ptr %28, align 8, !tbaa !8
  %30 = call i64 @llvm.fshl.i64(i64 %29, i64 %29, i64 18)
  %31 = add i64 %25, %30
  store i64 %31, ptr %3, align 8, !tbaa !8
  %32 = load i64, ptr %3, align 8, !tbaa !8
  %33 = load ptr, ptr %2, align 8, !tbaa !32
  %34 = getelementptr inbounds nuw %struct.XXH64_state_s, ptr %33, i32 0, i32 1
  %35 = getelementptr inbounds [4 x i64], ptr %34, i64 0, i64 0
  %36 = load i64, ptr %35, align 8, !tbaa !8
  %37 = call noundef i64 @_ZL16XXH64_mergeRoundmm(i64 noundef %32, i64 noundef %36)
  store i64 %37, ptr %3, align 8, !tbaa !8
  %38 = load i64, ptr %3, align 8, !tbaa !8
  %39 = load ptr, ptr %2, align 8, !tbaa !32
  %40 = getelementptr inbounds nuw %struct.XXH64_state_s, ptr %39, i32 0, i32 1
  %41 = getelementptr inbounds [4 x i64], ptr %40, i64 0, i64 1
  %42 = load i64, ptr %41, align 8, !tbaa !8
  %43 = call noundef i64 @_ZL16XXH64_mergeRoundmm(i64 noundef %38, i64 noundef %42)
  store i64 %43, ptr %3, align 8, !tbaa !8
  %44 = load i64, ptr %3, align 8, !tbaa !8
  %45 = load ptr, ptr %2, align 8, !tbaa !32
  %46 = getelementptr inbounds nuw %struct.XXH64_state_s, ptr %45, i32 0, i32 1
  %47 = getelementptr inbounds [4 x i64], ptr %46, i64 0, i64 2
  %48 = load i64, ptr %47, align 8, !tbaa !8
  %49 = call noundef i64 @_ZL16XXH64_mergeRoundmm(i64 noundef %44, i64 noundef %48)
  store i64 %49, ptr %3, align 8, !tbaa !8
  %50 = load i64, ptr %3, align 8, !tbaa !8
  %51 = load ptr, ptr %2, align 8, !tbaa !32
  %52 = getelementptr inbounds nuw %struct.XXH64_state_s, ptr %51, i32 0, i32 1
  %53 = getelementptr inbounds [4 x i64], ptr %52, i64 0, i64 3
  %54 = load i64, ptr %53, align 8, !tbaa !8
  %55 = call noundef i64 @_ZL16XXH64_mergeRoundmm(i64 noundef %50, i64 noundef %54)
  store i64 %55, ptr %3, align 8, !tbaa !8
  br label %62

56:                                               ; preds = %1
  %57 = load ptr, ptr %2, align 8, !tbaa !32
  %58 = getelementptr inbounds nuw %struct.XXH64_state_s, ptr %57, i32 0, i32 1
  %59 = getelementptr inbounds [4 x i64], ptr %58, i64 0, i64 2
  %60 = load i64, ptr %59, align 8, !tbaa !8
  %61 = add i64 %60, 2870177450012600261
  store i64 %61, ptr %3, align 8, !tbaa !8
  br label %62

62:                                               ; preds = %56, %8
  %63 = load ptr, ptr %2, align 8, !tbaa !32
  %64 = getelementptr inbounds nuw %struct.XXH64_state_s, ptr %63, i32 0, i32 0
  %65 = load i64, ptr %64, align 8, !tbaa !34
  %66 = load i64, ptr %3, align 8, !tbaa !8
  %67 = add i64 %66, %65
  store i64 %67, ptr %3, align 8, !tbaa !8
  %68 = load i64, ptr %3, align 8, !tbaa !8
  %69 = load ptr, ptr %2, align 8, !tbaa !32
  %70 = getelementptr inbounds nuw %struct.XXH64_state_s, ptr %69, i32 0, i32 2
  %71 = getelementptr inbounds [4 x i64], ptr %70, i64 0, i64 0
  %72 = load ptr, ptr %2, align 8, !tbaa !32
  %73 = getelementptr inbounds nuw %struct.XXH64_state_s, ptr %72, i32 0, i32 0
  %74 = load i64, ptr %73, align 8, !tbaa !34
  %75 = call noundef i64 @_ZL14XXH64_finalizemPKhm13XXH_alignment(i64 noundef %68, ptr noundef %71, i64 noundef %74, i32 noundef 0) #21
  call void @llvm.lifetime.end.p0(i64 8, ptr %3) #22
  ret i64 %75
}