; Function Attrs: mustprogress nofree norecurse nosync nounwind willreturn memory(argmem: read) uwtable
define i64 @ROCKSDB_XXH64_digest(ptr noundef readonly captures(none) %0) local_unnamed_addr #9 {
  %2 = load i64, ptr %0, align 8, !tbaa !24
  %3 = icmp ugt i64 %2, 31
  br i1 %3, label %4, label %44

4:                                                ; preds = %1
  %5 = getelementptr inbounds nuw i8, ptr %0, i64 8
  %6 = load i64, ptr %5, align 8, !tbaa !19
  %7 = tail call i64 @llvm.fshl.i64(i64 %6, i64 %6, i64 1)
  %8 = getelementptr inbounds nuw i8, ptr %0, i64 16
  %9 = load i64, ptr %8, align 8, !tbaa !19
  %10 = tail call i64 @llvm.fshl.i64(i64 %9, i64 %9, i64 7)
  %11 = add i64 %10, %7
  %12 = getelementptr inbounds nuw i8, ptr %0, i64 24
  %13 = load i64, ptr %12, align 8, !tbaa !19
  %14 = tail call i64 @llvm.fshl.i64(i64 %13, i64 %13, i64 12)
  %15 = add i64 %11, %14
  %16 = getelementptr inbounds nuw i8, ptr %0, i64 32
  %17 = load i64, ptr %16, align 8, !tbaa !19
  %18 = tail call i64 @llvm.fshl.i64(i64 %17, i64 %17, i64 18)
  %19 = add i64 %15, %18
  %20 = mul i64 %6, -4417276706812531889
  %21 = tail call i64 @llvm.fshl.i64(i64 %20, i64 %20, i64 31)
  %22 = mul i64 %21, -7046029288634856825
  %23 = xor i64 %19, %22
  %24 = mul i64 %23, -7046029288634856825
  %25 = add i64 %24, -8796714831421723037
  %26 = mul i64 %9, -4417276706812531889
  %27 = tail call i64 @llvm.fshl.i64(i64 %26, i64 %26, i64 31)
  %28 = mul i64 %27, -7046029288634856825
  %29 = xor i64 %25, %28
  %30 = mul i64 %29, -7046029288634856825
  %31 = add i64 %30, -8796714831421723037
  %32 = mul i64 %13, -4417276706812531889
  %33 = tail call i64 @llvm.fshl.i64(i64 %32, i64 %32, i64 31)
  %34 = mul i64 %33, -7046029288634856825
  %35 = xor i64 %31, %34
  %36 = mul i64 %35, -7046029288634856825
  %37 = add i64 %36, -8796714831421723037
  %38 = mul i64 %17, -4417276706812531889
  %39 = tail call i64 @llvm.fshl.i64(i64 %38, i64 %38, i64 31)
  %40 = mul i64 %39, -7046029288634856825
  %41 = xor i64 %37, %40
  %42 = mul i64 %41, -7046029288634856825
  %43 = add i64 %42, -8796714831421723037
  br label %48

44:                                               ; preds = %1
  %45 = getelementptr inbounds nuw i8, ptr %0, i64 24
  %46 = load i64, ptr %45, align 8, !tbaa !19
  %47 = add i64 %46, 2870177450012600261
  br label %48

48:                                               ; preds = %44, %4
  %.0 = phi i64 [ %43, %4 ], [ %47, %44 ]
  %49 = add i64 %.0, %2
  %50 = getelementptr inbounds nuw i8, ptr %0, i64 40
  %51 = and i64 %2, 31
  %52 = icmp samesign ugt i64 %51, 7
  br i1 %52, label %_ZL18XXH_readLE64_alignPKv13XXH_alignment.exit.i, label %._crit_edge.i

_ZL18XXH_readLE64_alignPKv13XXH_alignment.exit.i: ; preds = %48, %_ZL18XXH_readLE64_alignPKv13XXH_alignment.exit.i
  %.034.i = phi i64 [ %60, %_ZL18XXH_readLE64_alignPKv13XXH_alignment.exit.i ], [ %49, %48 ]
  %.02333.i = phi ptr [ %56, %_ZL18XXH_readLE64_alignPKv13XXH_alignment.exit.i ], [ %50, %48 ]
  %.02632.i = phi i64 [ %61, %_ZL18XXH_readLE64_alignPKv13XXH_alignment.exit.i ], [ %51, %48 ]
  %.0.i30.i = load i64, ptr %.02333.i, align 1, !tbaa !19
  %53 = mul i64 %.0.i30.i, -4417276706812531889
  %54 = tail call i64 @llvm.fshl.i64(i64 %53, i64 %53, i64 31)
  %55 = mul i64 %54, -7046029288634856825
  %56 = getelementptr inbounds nuw i8, ptr %.02333.i, i64 8
  %57 = xor i64 %55, %.034.i
  %58 = tail call i64 @llvm.fshl.i64(i64 %57, i64 %57, i64 27)
  %59 = mul i64 %58, -7046029288634856825
  %60 = add i64 %59, -8796714831421723037
  %61 = add nsw i64 %.02632.i, -8
  %62 = icmp ugt i64 %61, 7
  br i1 %62, label %_ZL18XXH_readLE64_alignPKv13XXH_alignment.exit.i, label %._crit_edge.i, !llvm.loop !22

._crit_edge.i:                                    ; preds = %_ZL18XXH_readLE64_alignPKv13XXH_alignment.exit.i, %48
  %.026.lcssa.i = phi i64 [ %51, %48 ], [ %61, %_ZL18XXH_readLE64_alignPKv13XXH_alignment.exit.i ]
  %.023.lcssa.i = phi ptr [ %50, %48 ], [ %56, %_ZL18XXH_readLE64_alignPKv13XXH_alignment.exit.i ]
  %.0.lcssa.i = phi i64 [ %49, %48 ], [ %60, %_ZL18XXH_readLE64_alignPKv13XXH_alignment.exit.i ]
  %63 = icmp samesign ugt i64 %.026.lcssa.i, 3
  br i1 %63, label %_ZL18XXH_readLE32_alignPKv13XXH_alignment.exit.i, label %72

_ZL18XXH_readLE32_alignPKv13XXH_alignment.exit.i: ; preds = %._crit_edge.i
  %.0.i.i = load i32, ptr %.023.lcssa.i, align 1, !tbaa !4
  %64 = zext i32 %.0.i.i to i64
  %65 = mul i64 %64, -7046029288634856825
  %66 = xor i64 %65, %.0.lcssa.i
  %67 = getelementptr inbounds nuw i8, ptr %.023.lcssa.i, i64 4
  %68 = tail call i64 @llvm.fshl.i64(i64 %66, i64 %66, i64 23)
  %69 = mul i64 %68, -4417276706812531889
  %70 = add i64 %69, 1609587929392839161
  %71 = add nsw i64 %.026.lcssa.i, -4
  br label %72

72:                                               ; preds = %_ZL18XXH_readLE32_alignPKv13XXH_alignment.exit.i, %._crit_edge.i
  %.127.i = phi i64 [ %71, %_ZL18XXH_readLE32_alignPKv13XXH_alignment.exit.i ], [ %.026.lcssa.i, %._crit_edge.i ]
  %.124.i = phi ptr [ %67, %_ZL18XXH_readLE32_alignPKv13XXH_alignment.exit.i ], [ %.023.lcssa.i, %._crit_edge.i ]
  %.1.i = phi i64 [ %70, %_ZL18XXH_readLE32_alignPKv13XXH_alignment.exit.i ], [ %.0.lcssa.i, %._crit_edge.i ]
  %.not37.i = icmp eq i64 %.127.i, 0
  br i1 %.not37.i, label %_ZL14XXH64_finalizemPKhm13XXH_alignment.exit, label %.lr.ph.i

.lr.ph.i:                                         ; preds = %72, %.lr.ph.i
  %.240.i = phi i64 [ %79, %.lr.ph.i ], [ %.1.i, %72 ]
  %.22539.i = phi ptr [ %73, %.lr.ph.i ], [ %.124.i, %72 ]
  %.22838.i = phi i64 [ %80, %.lr.ph.i ], [ %.127.i, %72 ]
  %73 = getelementptr inbounds nuw i8, ptr %.22539.i, i64 1
  %74 = load i8, ptr %.22539.i, align 1, !tbaa !12
  %75 = zext i8 %74 to i64
  %76 = mul i64 %75, 2870177450012600261
  %77 = xor i64 %76, %.240.i
  %78 = tail call i64 @llvm.fshl.i64(i64 %77, i64 %77, i64 11)
  %79 = mul i64 %78, -7046029288634856825
  %80 = add nsw i64 %.22838.i, -1
  %.not.i = icmp eq i64 %80, 0
  br i1 %.not.i, label %_ZL14XXH64_finalizemPKhm13XXH_alignment.exit, label %.lr.ph.i, !llvm.loop !23

_ZL14XXH64_finalizemPKhm13XXH_alignment.exit:     ; preds = %.lr.ph.i, %72
  %.2.lcssa.i = phi i64 [ %.1.i, %72 ], [ %79, %.lr.ph.i ]
  %81 = lshr i64 %.2.lcssa.i, 33
  %82 = xor i64 %81, %.2.lcssa.i
  %83 = mul i64 %82, -4417276706812531889
  %84 = lshr i64 %83, 29
  %85 = xor i64 %84, %83
  %86 = mul i64 %85, 1609587929392839161
  %87 = lshr i64 %86, 32
  %88 = xor i64 %87, %86
  ret i64 %88
}